target datalayout = "e-m:e-p270:32:32-p271:32:32-p272:64:64-i64:64-i128:128-f80:128-n8:16:32:64-S128"
target triple = "x86_64-pc-linux-gnu"

@proto_register_cpfi.ett = internal global [3 x ptr] [ptr @ett_cpfi, ptr @ett_cpfi_header, ptr @ett_cpfi_footer], align 16
@.str.46 = private unnamed_addr constant [27 x i8] c"Cross Point Frame Injector\00", align 1
@.str.47 = private unnamed_addr constant [5 x i8] c"CPFI\00", align 1
@.str.48 = private unnamed_addr constant [5 x i8] c"cpfi\00", align 1
@proto_cpfi = internal global i32 0, align 4
@.str.49 = private unnamed_addr constant [10 x i8] c"udp.port2\00", align 1
@.str.50 = private unnamed_addr constant [28 x i8] c"InstanceToInstance UDP Port\00", align 1
@.str.51 = private unnamed_addr constant [81 x i8] c"Set the port for InstanceToInstance messages (if other than the default of 5001)\00", align 1
@gbl_cpfi_ttot_udp_port = internal global i32 5001, align 4
@.str.52 = private unnamed_addr constant [10 x i8] c"arrow_ctl\00", align 1
@.str.53 = private unnamed_addr constant [28 x i8] c"Enable Active Arrow Control\00", align 1
@cpfi_arrow_moves = internal global i8 1, align 1
@cpfi_handle = internal global ptr null, align 8

; Function Attrs: null_pointer_is_valid sspstrong uwtable
define hidden void @proto_register_cpfi() #0 {
  %1 = alloca ptr, align 8
  call void @llvm.lifetime.start.p0(i64 8, ptr %1) #5
  %2 = call i32 @proto_register_protocol(ptr noundef @.str.46, ptr noundef @.str.47, ptr noundef @.str.48)
  store i32 %2, ptr @proto_cpfi, align 4
  %3 = load i32, ptr @proto_cpfi, align 4
  call void @proto_register_field_array(i32 noundef %3, ptr noundef @proto_register_cpfi.hf, i32 noundef 20)
  call void @proto_register_subtree_array(ptr noundef @proto_register_cpfi.ett, i32 noundef 3)
  %4 = load i32, ptr @proto_cpfi, align 4
  %5 = call ptr @prefs_register_protocol(i32 noundef %4, ptr noundef @proto_reg_handoff_cpfi)
  store ptr %5, ptr %1, align 8
  %6 = load ptr, ptr %1, align 8
  call void @prefs_register_uint_preference(ptr noundef %6, ptr noundef @.str.49, ptr noundef @.str.50, ptr noundef @.str.51, i32 noundef 10, ptr noundef @gbl_cpfi_ttot_udp_port)
  %7 = load ptr, ptr %1, align 8
  call void @prefs_register_bool_preference(ptr noundef %7, ptr noundef @.str.52, ptr noundef @.str.53, ptr noundef @.str.54, ptr noundef @cpfi_arrow_moves)
  %8 = load i32, ptr @proto_cpfi, align 4
  %9 = call ptr @register_dissector(ptr noundef @.str.48, ptr noundef @dissect_cpfi, i32 noundef %8)
  store ptr %9, ptr @cpfi_handle, align 8
  call void @llvm.lifetime.end.p0(i64 8, ptr %1) #5
  ret void
}