; Function Attrs: null_pointer_is_valid sspstrong uwtable
define hidden void @proto_register_cpfi() local_unnamed_addr #0 {
  %1 = tail call i32 @proto_register_protocol(ptr noundef nonnull @.str.46, ptr noundef nonnull @.str.47, ptr noundef nonnull @.str.48)
  store i32 %1, ptr @proto_cpfi, align 4
  tail call void @proto_register_field_array(i32 noundef %1, ptr noundef nonnull @proto_register_cpfi.hf, i32 noundef 20)
  tail call void @proto_register_subtree_array(ptr noundef nonnull @proto_register_cpfi.ett, i32 noundef 3)
  %2 = load i32, ptr @proto_cpfi, align 4
  %3 = tail call ptr @prefs_register_protocol(i32 noundef %2, ptr noundef nonnull @proto_reg_handoff_cpfi)
  tail call void @prefs_register_uint_preference(ptr noundef %3, ptr noundef nonnull @.str.49, ptr noundef nonnull @.str.50, ptr noundef nonnull @.str.51, i32 noundef 10, ptr noundef nonnull @gbl_cpfi_ttot_udp_port)
  tail call void @prefs_register_bool_preference(ptr noundef %3, ptr noundef nonnull @.str.52, ptr noundef nonnull @.str.53, ptr noundef nonnull @.str.54, ptr noundef nonnull @cpfi_arrow_moves)
  %4 = load i32, ptr @proto_cpfi, align 4
  %5 = tail call ptr @register_dissector(ptr noundef nonnull @.str.48, ptr noundef nonnull @dissect_cpfi, i32 noundef %4)
  store ptr %5, ptr @cpfi_handle, align 8
  ret void
}